target datalayout = "e-m:e-p270:32:32-p271:32:32-p272:64:64-i64:64-i128:128-f80:128-n8:16:32:64-S128"
target triple = "x86_64-pc-linux-gnu"

%struct.lua_State = type { %struct.GCRef, i8, i8, i8, i8, %struct.MRef, %struct.GCRef, ptr, ptr, %struct.MRef, %struct.MRef, %struct.GCRef, %struct.GCRef, ptr, i32 }
%struct.MRef = type { i64 }
%struct.GCRef = type { i64 }
%union.TValue = type { i64 }
%struct.GCstr = type { %struct.GCRef, i8, i8, i8, i8, i32, i32, i32 }

@.str.4 = private unnamed_addr constant [24 x i8] c"store to dead GC object\00", align 1

; Function Attrs: alwaysinline nounwind uwtable
define internal void @checklivetv(ptr noundef %0, ptr noundef %1, ptr noundef %2) #1 {
  %4 = alloca ptr, align 8
  %5 = alloca ptr, align 8
  %6 = alloca ptr, align 8
  store ptr %0, ptr %4, align 8, !tbaa !4
  store ptr %1, ptr %5, align 8, !tbaa !17
  store ptr %2, ptr %6, align 8, !tbaa !25
  ret void
}

; Function Attrs: alwaysinline nounwind uwtable
define internal void @setgcVraw(ptr noundef %0, ptr noundef %1, i32 noundef %2) #1 {
  %4 = alloca ptr, align 8
  %5 = alloca ptr, align 8
  %6 = alloca i32, align 4
  store ptr %0, ptr %4, align 8, !tbaa !17
  store ptr %1, ptr %5, align 8, !tbaa !27
  store i32 %2, ptr %6, align 4, !tbaa !29
  %7 = load ptr, ptr %5, align 8, !tbaa !27
  %8 = ptrtoint ptr %7 to i64
  %9 = load i32, ptr %6, align 4, !tbaa !29
  %10 = zext i32 %9 to i64
  %11 = shl i64 %10, 47
  %12 = or i64 %8, %11
  %13 = load ptr, ptr %4, align 8, !tbaa !17
  %14 = getelementptr inbounds nuw %struct.GCRef, ptr %13, i32 0, i32 0
  store i64 %12, ptr %14, align 8, !tbaa !16
  ret void
}

; Function Attrs: alwaysinline nounwind uwtable
define internal void @setgcV(ptr noundef %0, ptr noundef %1, ptr noundef %2, i32 noundef %3) #1 {
  %5 = alloca ptr, align 8
  %6 = alloca ptr, align 8
  %7 = alloca ptr, align 8
  %8 = alloca i32, align 4
  store ptr %0, ptr %5, align 8, !tbaa !4
  store ptr %1, ptr %6, align 8, !tbaa !17
  store ptr %2, ptr %7, align 8, !tbaa !27
  store i32 %3, ptr %8, align 4, !tbaa !29
  %9 = load ptr, ptr %6, align 8, !tbaa !17
  %10 = load ptr, ptr %7, align 8, !tbaa !27
  %11 = load i32, ptr %8, align 4, !tbaa !29
  call void @setgcVraw(ptr noundef %9, ptr noundef %10, i32 noundef %11)
  %12 = load ptr, ptr %5, align 8, !tbaa !4
  %13 = load ptr, ptr %6, align 8, !tbaa !17
  call void @checklivetv(ptr noundef %12, ptr noundef %13, ptr noundef @.str.4)
  ret void
}

; Function Attrs: alwaysinline nounwind uwtable
define internal void @setstrV(ptr noundef %0, ptr noundef %1, ptr noundef %2) #1 {
  %4 = alloca ptr, align 8
  %5 = alloca ptr, align 8
  %6 = alloca ptr, align 8
  store ptr %0, ptr %4, align 8, !tbaa !4
  store ptr %1, ptr %5, align 8, !tbaa !17
  store ptr %2, ptr %6, align 8, !tbaa !30
  %7 = load ptr, ptr %4, align 8, !tbaa !4
  %8 = load ptr, ptr %5, align 8, !tbaa !17
  %9 = load ptr, ptr %6, align 8, !tbaa !30
  call void @setgcV(ptr noundef %7, ptr noundef %8, ptr noundef %9, i32 noundef -5)
  ret void
}

; Function Attrs: nounwind uwtable
define internal i32 @ffh_resume(ptr noundef %0, ptr noundef %1, i32 noundef %2) #3 {
  %4 = alloca i32, align 4
  %5 = alloca ptr, align 8
  %6 = alloca ptr, align 8
  %7 = alloca i32, align 4
  %8 = alloca i32, align 4
  %9 = alloca ptr, align 8
  store ptr %0, ptr %5, align 8, !tbaa !4
  store ptr %1, ptr %6, align 8, !tbaa !4
  store i32 %2, ptr %7, align 4, !tbaa !29
  %10 = load ptr, ptr %6, align 8, !tbaa !4
  %11 = getelementptr inbounds nuw %struct.lua_State, ptr %10, i32 0, i32 13
  %12 = load ptr, ptr %11, align 8, !tbaa !88
  %13 = icmp ne ptr %12, null
  br i1 %13, label %34, label %14

14:                                               ; preds = %3
  %15 = load ptr, ptr %6, align 8, !tbaa !4
  %16 = getelementptr inbounds nuw %struct.lua_State, ptr %15, i32 0, i32 4
  %17 = load i8, ptr %16, align 1, !tbaa !86
  %18 = zext i8 %17 to i32
  %19 = icmp sgt i32 %18, 1
  br i1 %19, label %34, label %20

20:                                               ; preds = %14
  %21 = load ptr, ptr %6, align 8, !tbaa !4
  %22 = getelementptr inbounds nuw %struct.lua_State, ptr %21, i32 0, i32 4
  %23 = load i8, ptr %22, align 1, !tbaa !86
  %24 = zext i8 %23 to i32
  %25 = icmp eq i32 %24, 0
  br i1 %25, label %26, label %59

26:                                               ; preds = %20
  %27 = load ptr, ptr %6, align 8, !tbaa !4
  %28 = getelementptr inbounds nuw %struct.lua_State, ptr %27, i32 0, i32 8
  %29 = load ptr, ptr %28, align 8, !tbaa !9
  %30 = load ptr, ptr %6, align 8, !tbaa !4
  %31 = getelementptr inbounds nuw %struct.lua_State, ptr %30, i32 0, i32 7
  %32 = load ptr, ptr %31, align 8, !tbaa !32
  %33 = icmp eq ptr %29, %32
  br i1 %33, label %34, label %59

34:                                               ; preds = %26, %14, %3
  call void @llvm.lifetime.start.p0(i64 4, ptr %8) #11
  %35 = load ptr, ptr %6, align 8, !tbaa !4
  %36 = getelementptr inbounds nuw %struct.lua_State, ptr %35, i32 0, i32 13
  %37 = load ptr, ptr %36, align 8, !tbaa !88
  %38 = icmp ne ptr %37, null
  %39 = select i1 %38, i32 1286, i32 1318
  store i32 %39, ptr %8, align 4, !tbaa !29
  %40 = load i32, ptr %7, align 4, !tbaa !29
  %41 = icmp ne i32 %40, 0
  br i1 %41, label %42, label %45

42:                                               ; preds = %34
  %43 = load ptr, ptr %5, align 8, !tbaa !4
  %44 = load i32, ptr %8, align 4, !tbaa !29
  call void @lj_err_caller(ptr noundef %43, i32 noundef %44) #10
  unreachable

45:                                               ; preds = %34
  %46 = load ptr, ptr %5, align 8, !tbaa !4
  %47 = getelementptr inbounds nuw %struct.lua_State, ptr %46, i32 0, i32 7
  %48 = load ptr, ptr %47, align 8, !tbaa !32
  %49 = getelementptr inbounds %union.TValue, ptr %48, i64 -1
  %50 = getelementptr inbounds %union.TValue, ptr %49, i64 -1
  store i64 -140737488355329, ptr %50, align 8, !tbaa !16
  %51 = load ptr, ptr %5, align 8, !tbaa !4
  %52 = load ptr, ptr %5, align 8, !tbaa !4
  %53 = getelementptr inbounds nuw %struct.lua_State, ptr %52, i32 0, i32 7
  %54 = load ptr, ptr %53, align 8, !tbaa !32
  %55 = getelementptr inbounds %union.TValue, ptr %54, i64 -1
  %56 = load ptr, ptr %5, align 8, !tbaa !4
  %57 = load i32, ptr %8, align 4, !tbaa !29
  %58 = call ptr @lj_err_str(ptr noundef %56, i32 noundef %57)
  call void @setstrV(ptr noundef %51, ptr noundef %55, ptr noundef %58)
  store i32 3, ptr %4, align 4
  call void @llvm.lifetime.end.p0(i64 4, ptr %8) #11
  br label %87

59:                                               ; preds = %26, %20
  %60 = load ptr, ptr %6, align 8, !tbaa !4
  %61 = load ptr, ptr %5, align 8, !tbaa !4
  %62 = getelementptr inbounds nuw %struct.lua_State, ptr %61, i32 0, i32 8
  %63 = load ptr, ptr %62, align 8, !tbaa !9
  %64 = load ptr, ptr %5, align 8, !tbaa !4
  %65 = getelementptr inbounds nuw %struct.lua_State, ptr %64, i32 0, i32 7
  %66 = load ptr, ptr %65, align 8, !tbaa !32
  %67 = ptrtoint ptr %63 to i64
  %68 = ptrtoint ptr %66 to i64
  %69 = sub i64 %67, %68
  %70 = sdiv exact i64 %69, 8
  %71 = trunc i64 %70 to i32
  %72 = call i32 @lj_state_cpgrowstack(ptr noundef %60, i32 noundef %71)
  %73 = icmp ne i32 %72, 0
  br i1 %73, label %74, label %86

74:                                               ; preds = %59
  call void @llvm.lifetime.start.p0(i64 8, ptr %9) #11
  %75 = load ptr, ptr %6, align 8, !tbaa !4
  %76 = getelementptr inbounds nuw %struct.lua_State, ptr %75, i32 0, i32 8
  %77 = load ptr, ptr %76, align 8, !tbaa !9
  %78 = getelementptr inbounds %union.TValue, ptr %77, i32 -1
  store ptr %78, ptr %76, align 8, !tbaa !9
  store ptr %78, ptr %9, align 8, !tbaa !17
  %79 = load ptr, ptr %5, align 8, !tbaa !4
  %80 = load ptr, ptr %9, align 8, !tbaa !17
  %81 = getelementptr inbounds nuw %struct.GCRef, ptr %80, i32 0, i32 0
  %82 = load i64, ptr %81, align 8, !tbaa !16
  %83 = and i64 %82, 140737488355327
  %84 = inttoptr i64 %83 to ptr
  %85 = getelementptr inbounds %struct.GCstr, ptr %84, i64 1
  call void @lj_err_callermsg(ptr noundef %79, ptr noundef %85) #10
  unreachable

86:                                               ; preds = %59
  store i32 0, ptr %4, align 4
  br label %87

87:                                               ; preds = %86, %45
  %88 = load i32, ptr %4, align 4
  ret i32 %88
}

; Function Attrs: nounwind uwtable
define internal i32 @lj_ffh_coroutine_resume(ptr noundef %0) #3 {
  %2 = alloca ptr, align 8
  store ptr %0, ptr %2, align 8, !tbaa !4
  %3 = load ptr, ptr %2, align 8, !tbaa !4
  %4 = getelementptr inbounds nuw %struct.lua_State, ptr %3, i32 0, i32 8
  %5 = load ptr, ptr %4, align 8, !tbaa !9
  %6 = load ptr, ptr %2, align 8, !tbaa !4
  %7 = getelementptr inbounds nuw %struct.lua_State, ptr %6, i32 0, i32 7
  %8 = load ptr, ptr %7, align 8, !tbaa !32
  %9 = icmp ugt ptr %5, %8
  br i1 %9, label %10, label %18

10:                                               ; preds = %1
  %11 = load ptr, ptr %2, align 8, !tbaa !4
  %12 = getelementptr inbounds nuw %struct.lua_State, ptr %11, i32 0, i32 7
  %13 = load ptr, ptr %12, align 8, !tbaa !32
  %14 = load i64, ptr %13, align 8, !tbaa !16
  %15 = ashr i64 %14, 47
  %16 = trunc i64 %15 to i32
  %17 = icmp eq i32 %16, -7
  br i1 %17, label %20, label %18

18:                                               ; preds = %10, %1
  %19 = load ptr, ptr %2, align 8, !tbaa !4
  call void @lj_err_arg(ptr noundef %19, i32 noundef 1, i32 noundef 566) #10
  unreachable

20:                                               ; preds = %10
  %21 = load ptr, ptr %2, align 8, !tbaa !4
  %22 = load ptr, ptr %2, align 8, !tbaa !4
  %23 = getelementptr inbounds nuw %struct.lua_State, ptr %22, i32 0, i32 7
  %24 = load ptr, ptr %23, align 8, !tbaa !32
  %25 = getelementptr inbounds nuw %struct.GCRef, ptr %24, i32 0, i32 0
  %26 = load i64, ptr %25, align 8, !tbaa !16
  %27 = and i64 %26, 140737488355327
  %28 = inttoptr i64 %27 to ptr
  %29 = call i32 @ffh_resume(ptr noundef %21, ptr noundef %28, i32 noundef 0)
  ret i32 %29
}