; Function Attrs: nounwind uwtable
define internal range(i32 0, 4) i32 @lj_ffh_coroutine_resume(ptr noundef %0) #2 {
  %2 = getelementptr inbounds nuw i8, ptr %0, i64 40
  %3 = load ptr, ptr %2, align 8, !tbaa !4
  %4 = getelementptr inbounds nuw i8, ptr %0, i64 32
  %5 = load ptr, ptr %4, align 8, !tbaa !19
  %6 = icmp ugt ptr %3, %5
  br i1 %6, label %7, label %10

7:                                                ; preds = %1
  %8 = load i64, ptr %5, align 8, !tbaa !14
  %.mask = and i64 %8, -140737488355328
  %9 = icmp eq i64 %.mask, -985162418487296
  br i1 %9, label %11, label %10

10:                                               ; preds = %7, %1
  tail call void @lj_err_arg(ptr noundef nonnull %0, i32 noundef 1, i32 noundef 566) #10
  unreachable

11:                                               ; preds = %7
  %12 = and i64 %8, 140737488355327
  %13 = inttoptr i64 %12 to ptr
  %14 = getelementptr inbounds nuw i8, ptr %13, i64 80
  %15 = load ptr, ptr %14, align 8, !tbaa !69
  %.not.i = icmp eq ptr %15, null
  br i1 %.not.i, label %16, label %28

16:                                               ; preds = %11
  %17 = getelementptr inbounds nuw i8, ptr %13, i64 11
  %18 = load i8, ptr %17, align 1, !tbaa !67
  %19 = icmp ugt i8 %18, 1
  br i1 %19, label %28, label %20

20:                                               ; preds = %16
  %21 = icmp eq i8 %18, 0
  br i1 %21, label %22, label %36

22:                                               ; preds = %20
  %23 = getelementptr inbounds nuw i8, ptr %13, i64 40
  %24 = load ptr, ptr %23, align 8, !tbaa !4
  %25 = getelementptr inbounds nuw i8, ptr %13, i64 32
  %26 = load ptr, ptr %25, align 8, !tbaa !19
  %27 = icmp eq ptr %24, %26
  br i1 %27, label %28, label %36

28:                                               ; preds = %22, %16, %11
  %29 = phi i32 [ 1318, %22 ], [ 1318, %16 ], [ 1286, %11 ]
  %30 = getelementptr inbounds i8, ptr %5, i64 -16
  store i64 -140737488355329, ptr %30, align 8, !tbaa !14
  %31 = load ptr, ptr %4, align 8, !tbaa !19
  %32 = getelementptr inbounds i8, ptr %31, i64 -8
  %33 = tail call ptr @lj_err_str(ptr noundef nonnull %0, i32 noundef %29) #11
  %34 = ptrtoint ptr %33 to i64
  %35 = or i64 %34, -703687441776640
  store i64 %35, ptr %32, align 8, !tbaa !14
  br label %ffh_resume.exit

36:                                               ; preds = %22, %20
  %37 = ptrtoint ptr %3 to i64
  %38 = ptrtoint ptr %5 to i64
  %39 = sub i64 %37, %38
  %40 = lshr exact i64 %39, 3
  %41 = trunc i64 %40 to i32
  %42 = tail call i32 @lj_state_cpgrowstack(ptr noundef nonnull %13, i32 noundef %41) #11
  %.not21.i = icmp eq i32 %42, 0
  br i1 %.not21.i, label %ffh_resume.exit, label %43

43:                                               ; preds = %36
  %44 = getelementptr inbounds nuw i8, ptr %13, i64 40
  %45 = load ptr, ptr %44, align 8, !tbaa !4
  %46 = getelementptr inbounds i8, ptr %45, i64 -8
  store ptr %46, ptr %44, align 8, !tbaa !4
  %47 = load i64, ptr %46, align 8, !tbaa !14
  %48 = and i64 %47, 140737488355327
  %49 = inttoptr i64 %48 to ptr
  %50 = getelementptr inbounds nuw i8, ptr %49, i64 24
  tail call void @lj_err_callermsg(ptr noundef nonnull %0, ptr noundef nonnull %50) #10
  unreachable

ffh_resume.exit:                                  ; preds = %28, %36
  %.0.i = phi i32 [ 3, %28 ], [ 0, %36 ]
  ret i32 %.0.i
}